; Function Attrs: nounwind uwtable
define internal void @bufferevent_filtered_outbuf_cb(ptr readnone captures(none) %0, ptr noundef readonly captures(none) %1, ptr noundef %2) #0 {
  %4 = alloca i32, align 4
  %5 = getelementptr inbounds nuw i8, ptr %1, i64 8
  %6 = load i64, ptr %5, align 8
  %.not = icmp eq i64 %6, 0
  br i1 %.not, label %9, label %7

7:                                                ; preds = %3
  call void @llvm.lifetime.start.p0(i64 4, ptr nonnull %4) #3
  store i32 0, ptr %4, align 4
  tail call void @bufferevent_incref_and_lock_(ptr noundef %2) #3
  call fastcc void @be_filter_process_output(ptr noundef %2, i32 noundef 0, ptr noundef %4)
  %8 = tail call i32 @bufferevent_decref_and_unlock_(ptr noundef %2) #3
  call void @llvm.lifetime.end.p0(i64 4, ptr nonnull %4) #3
  br label %9

9:                                                ; preds = %7, %3
  ret void
}